Sjasm Z80 Assembler v0.42c - www.xl2s.tk             [2023.02.07 - 07:00:47]

sprites.asm
Errors: 0

       1   00:0000                      		 output sprites.bin
       2   00:D000  FE                  	db   #fe
       3   00:D001  00 D0               	dw   INICIO 
       4   00:D003  4A D6               	dw   FINAL
       5   00:D005  00 D0               	dw   INICIO 
       6   00:D007                      	org  #d000 
       7   00:D000                      INICIO: 
       8   00:D000                      ; Setup video mode
       9   00:D000  3E 05               	ld a,5
      10   00:D002  CD 5F 00            	call #005F ; CHGMOD equ #005F, change mode video to screen 5
      11   00:D005                      ; Setup sprite size
      12   00:D005                      ; Sprites no ampliados de 16x16
      13   00:D005  06 E2               	ld b,#e2
      14   00:D007  0E 01               	ld c,1
      15   00:D009  CD 47 00            	call #0047;WRTVDP equ #0047, b data to write, c number register, escribe en los registros del VDP
      16   00:D00C  21 32 D0            	ld hl, sprites_definition
      17   00:D00F  11 00 78            	ld de, 30720 ;&h7800, base(29) en sc5
      18   00:D012  01 C0 03            	ld bc, 32*30
      19   00:D015  CD 5C 00            	call  #005C; #005C=LDIRVM 
      20   00:D018  21 F2 D3            	ld hl, sprites_colors
      21   00:D01B  11 00 74            	ld de, 29696 ;&h7400, en sc5
      22   00:D01E  01 E0 01            	ld bc, 16*30
      23   00:D021  CD 5C 00            	call  #005C; #005C=LDIRVM 
      24   00:D024  21 D2 D5            	ld hl, sprites_atributes
      25   00:D027  11 00 76            	ld de, 30208 ;&h7600, base(28) en sc5
      26   00:D02A  01 78 00            	ld bc, 4*30
      27   00:D02D  CD 5C 00            	call  #005C; #005C=LDIRVM 
      28   00:D030                      .bucle: 
      29   00:D030  18 FE               	jr .bucle
      30   00:D032                      sprites_definition:
      31   00:D032                      ;Definition sprite 0, name: diban-rojo
      32   00:D032                      	db 224,176,216,191,219,190,219,190
      32   00:D032  E0 B0 D8 BF DB BE DB BE 
      33   00:D03A                      	db 219,190,219,190,219,126,59,31
      33   00:D03A  DB BE DB BE DB 7E 3B 1F 
      34   00:D042                      	db 7,11,29,251,189,251,189,251
      34   00:D042  07 0B 1D FB BD FB BD FB 
      35   00:D04A                      	db 189,251,189,251,189,250,188,248
      35   00:D04A  BD FB BD FB BD FA BC F8 
      36   00:D052                      ;Definition sprite 1, name: diban-azul
      37   00:D052                      	db 128,192,224,176,216,172,215,171
      37   00:D052  80 C0 E0 B0 D8 AC D7 AB 
      38   00:D05A                      	db 213,171,213,107,53,27,13,7
      38   00:D05A  D5 AB D5 6B 35 1B 0D 07 
      39   00:D062                      	db 1,3,7,13,27,53,235,213
      39   00:D062  01 03 07 0D 1B 35 EB D5 
      40   00:D06A                      	db 171,213,171,214,172,216,176,224
      40   00:D06A  AB D5 AB D6 AC D8 B0 E0 
      41   00:D072                      ;Definition sprite 2, name: fire
      42   00:D072                      	db 0,254,255,254,0,0,0,0
      42   00:D072  00 FE FF FE 00 00 00 00 
      43   00:D07A                      	db 0,0,0,0,0,0,0,0
      43   00:D07A  00 00 00 00 00 00 00 00 
      44   00:D082                      	db 3,7,255,7,3,0,0,0
      44   00:D082  03 07 FF 07 03 00 00 00 
      45   00:D08A                      	db 0,0,0,0,0,0,0,0
      45   00:D08A  00 00 00 00 00 00 00 00 
      46   00:D092                      ;Definition sprite 3, name: player-left-1
      47   00:D092                      	db 3,7,2,7,3,1,3,3
      47   00:D092  03 07 02 07 03 01 03 03 
      48   00:D09A                      	db 3,3,3,7,4,4,4,12
      48   00:D09A  03 03 03 07 04 04 04 0C 
      49   00:D0A2                      	db 128,128,128,128,128,128,128,192
      49   00:D0A2  80 80 80 80 80 80 80 C0 
      50   00:D0AA                      	db 192,192,128,128,128,128,128,128
      50   00:D0AA  C0 C0 80 80 80 80 80 80 
      51   00:D0B2                      ;Definition sprite 4, name: player-left-2
      52   00:D0B2                      	db 3,7,2,7,3,1,3,2
      52   00:D0B2  03 07 02 07 03 01 03 02 
      53   00:D0BA                      	db 1,3,3,3,1,2,2,6
      53   00:D0BA  01 03 03 03 01 02 02 06 
      54   00:D0C2                      	db 128,128,128,128,128,128,128,128
      54   00:D0C2  80 80 80 80 80 80 80 80 
      55   00:D0CA                      	db 128,128,128,128,128,192,64,64
      55   00:D0CA  80 80 80 80 80 C0 40 40 
      56   00:D0D2                      ;Definition sprite 5, name: player-right-1
      57   00:D0D2                      	db 1,1,1,1,1,1,1,3
      57   00:D0D2  01 01 01 01 01 01 01 03 
      58   00:D0DA                      	db 3,3,1,1,1,1,1,1
      58   00:D0DA  03 03 01 01 01 01 01 01 
      59   00:D0E2                      	db 192,224,64,224,192,128,192,192
      59   00:D0E2  C0 E0 40 E0 C0 80 C0 C0 
      60   00:D0EA                      	db 192,192,192,224,32,32,32,48
      60   00:D0EA  C0 C0 C0 E0 20 20 20 30 
      61   00:D0F2                      ;Definition sprite 6, name: player-right-2
      62   00:D0F2                      	db 1,1,1,1,1,1,1,1
      62   00:D0F2  01 01 01 01 01 01 01 01 
      63   00:D0FA                      	db 1,1,1,1,1,1,3,2
      63   00:D0FA  01 01 01 01 01 01 03 02 
      64   00:D102                      	db 192,224,64,224,192,128,192,64
      64   00:D102  C0 E0 40 E0 C0 80 C0 40 
      65   00:D10A                      	db 128,192,192,192,128,64,64,96
      65   00:D10A  80 C0 C0 C0 80 40 40 60 
      66   00:D112                      ;Definition sprite 7, name: player-up-1
      67   00:D112                      	db 1,3,1,3,3,5,3,3
      67   00:D112  01 03 01 03 03 05 03 03 
      68   00:D11A                      	db 1,1,3,3,2,2,2,2
      68   00:D11A  01 01 03 03 02 02 02 02 
      69   00:D122                      	db 128,192,128,192,192,160,192,192
      69   00:D122  80 C0 80 C0 C0 A0 C0 C0 
      70   00:D12A                      	db 128,128,192,192,64,64,64,64
      70   00:D12A  80 80 C0 C0 40 40 40 40 
      71   00:D132                      ;Definition sprite 8, name: player-up-2
      72   00:D132                      	db 1,3,1,3,3,1,3,3
      72   00:D132  01 03 01 03 03 01 03 03 
      73   00:D13A                      	db 5,1,3,3,2,2,2,6
      73   00:D13A  05 01 03 03 02 02 02 06 
      74   00:D142                      	db 128,192,128,192,192,128,192,192
      74   00:D142  80 C0 80 C0 C0 80 C0 C0 
      75   00:D14A                      	db 160,128,192,192,64,64,64,96
      75   00:D14A  A0 80 C0 C0 40 40 40 60 
      76   00:D152                      ;Definition sprite 9, name: player-left-2
      77   00:D152                      	db 28,60,20,60,28,7,3,5
      77   00:D152  1C 3C 14 3C 1C 07 03 05 
      78   00:D15A                      	db 8,0,0,0,0,0,0,0
      78   00:D15A  08 00 00 00 00 00 00 00 
      79   00:D162                      	db 0,0,0,0,0,128,224,240
      79   00:D162  00 00 00 00 00 80 E0 F0 
      80   00:D16A                      	db 60,20,0,0,0,0,0,0
      80   00:D16A  3C 14 00 00 00 00 00 00 
      81   00:D172                      ;Definition sprite 10, name: player-left-2
      82   00:D172                      	db 0,0,0,0,0,1,7,15
      82   00:D172  00 00 00 00 00 01 07 0F 
      83   00:D17A                      	db 60,40,0,0,0,0,0,0
      83   00:D17A  3C 28 00 00 00 00 00 00 
      84   00:D182                      	db 56,60,40,60,56,224,192,160
      84   00:D182  38 3C 28 3C 38 E0 C0 A0 
      85   00:D18A                      	db 16,0,0,0,0,0,0,0
      85   00:D18A  10 00 00 00 00 00 00 00 
      86   00:D192                      ;Definition sprite 11, name: Enemy-right-1
      87   00:D192                      	db 1,1,1,3,7,7,7,7
      87   00:D192  01 01 01 03 07 07 07 07 
      88   00:D19A                      	db 3,3,3,3,3,4,8,12
      88   00:D19A  03 03 03 03 03 04 08 0C 
      89   00:D1A2                      	db 192,160,224,224,192,96,96,96
      89   00:D1A2  C0 A0 E0 E0 C0 60 60 60 
      90   00:D1AA                      	db 32,224,224,224,224,20,8,0
      90   00:D1AA  20 E0 E0 E0 E0 14 08 00 
      91   00:D1B2                      ;Definition sprite 12, name: Enemy-right-2
      92   00:D1B2                      	db 1,1,1,3,7,7,7,7
      92   00:D1B2  01 01 01 03 07 07 07 07 
      93   00:D1BA                      	db 3,3,3,3,3,2,2,1
      93   00:D1BA  03 03 03 03 03 02 02 01 
      94   00:D1C2                      	db 192,160,224,224,192,224,240,232
      94   00:D1C2  C0 A0 E0 E0 C0 E0 F0 E8 
      95   00:D1CA                      	db 224,224,224,224,224,32,64,96
      95   00:D1CA  E0 E0 E0 E0 E0 20 40 60 
      96   00:D1D2                      ;Definition sprite 13, name: Enemy-left-1
      97   00:D1D2                      	db 3,5,7,7,3,6,6,6
      97   00:D1D2  03 05 07 07 03 06 06 06 
      98   00:D1DA                      	db 4,7,7,7,7,40,16,0
      98   00:D1DA  04 07 07 07 07 28 10 00 
      99   00:D1E2                      	db 128,128,128,192,224,224,224,224
      99   00:D1E2  80 80 80 C0 E0 E0 E0 E0 
     100   00:D1EA                      	db 192,192,192,192,192,32,16,48
     100   00:D1EA  C0 C0 C0 C0 C0 20 10 30 
     101   00:D1F2                      ;Definition sprite 14, name: Enemy-left-2
     102   00:D1F2                      	db 3,5,7,7,3,7,15,23
     102   00:D1F2  03 05 07 07 03 07 0F 17 
     103   00:D1FA                      	db 7,7,7,7,7,4,2,6
     103   00:D1FA  07 07 07 07 07 04 02 06 
     104   00:D202                      	db 128,128,128,192,224,224,224,224
     104   00:D202  80 80 80 C0 E0 E0 E0 E0 
     105   00:D20A                      	db 192,192,192,192,192,64,64,128
     105   00:D20A  C0 C0 C0 C0 C0 40 40 80 
     106   00:D212                      ;Definition sprite 15, name: Enemy-2-right-1
     107   00:D212                      	db 0,0,0,0,0,0,1,1
     107   00:D212  00 00 00 00 00 00 01 01 
     108   00:D21A                      	db 1,1,1,1,1,1,1,2
     108   00:D21A  01 01 01 01 01 01 01 02 
     109   00:D222                      	db 0,224,240,160,224,224,128,224
     109   00:D222  00 E0 F0 A0 E0 E0 80 E0 
     110   00:D22A                      	db 224,112,32,224,224,224,32,64
     110   00:D22A  E0 70 20 E0 E0 E0 20 40 
     111   00:D232                      ;Definition sprite 16, name: Enemy-2-right-1
     112   00:D232                      	db 0,1,1,1,1,1,0,0
     112   00:D232  00 01 01 01 01 01 00 00 
     113   00:D23A                      	db 1,1,0,1,1,1,0,1
     113   00:D23A  01 01 00 01 01 01 00 01 
     114   00:D242                      	db 0,192,224,64,192,192,192,224
     114   00:D242  00 C0 E0 40 C0 C0 C0 E0 
     115   00:D24A                      	db 224,96,224,224,224,224,160,32
     115   00:D24A  E0 60 E0 E0 E0 E0 A0 20 
     116   00:D252                      ;Definition sprite 17, name: Enemy-2-right-1
     117   00:D252                      	db 0,7,15,5,7,7,1,7
     117   00:D252  00 07 0F 05 07 07 01 07 
     118   00:D25A                      	db 7,14,4,7,7,7,4,2
     118   00:D25A  07 0E 04 07 07 07 04 02 
     119   00:D262                      	db 0,0,0,0,0,0,128,128
     119   00:D262  00 00 00 00 00 00 80 80 
     120   00:D26A                      	db 128,128,128,128,128,128,128,64
     120   00:D26A  80 80 80 80 80 80 80 40 
     121   00:D272                      ;Definition sprite 18, name: Enemy-2-right-1
     122   00:D272                      	db 0,3,7,2,3,3,3,7
     122   00:D272  00 03 07 02 03 03 03 07 
     123   00:D27A                      	db 7,6,7,7,7,7,5,4
     123   00:D27A  07 06 07 07 07 07 05 04 
     124   00:D282                      	db 0,128,128,128,128,128,0,0
     124   00:D282  00 80 80 80 80 80 00 00 
     125   00:D28A                      	db 128,128,0,128,128,128,0,128
     125   00:D28A  80 80 00 80 80 80 00 80 
     126   00:D292                      ;Definition sprite 19, name: Enemy-2-up-1
     127   00:D292                      	db 0,0,3,3,3,3,9,5
     127   00:D292  00 00 03 03 03 03 09 05 
     128   00:D29A                      	db 3,7,7,7,3,3,2,2
     128   00:D29A  03 07 07 07 03 03 02 02 
     129   00:D2A2                      	db 0,0,192,192,192,192,144,160
     129   00:D2A2  00 00 C0 C0 C0 C0 90 A0 
     130   00:D2AA                      	db 192,224,224,224,192,192,64,64
     130   00:D2AA  C0 E0 E0 E0 C0 C0 40 40 
     131   00:D2B2                      ;Definition sprite 20, name: Enemy-2-up-1
     132   00:D2B2                      	db 0,0,0,3,3,3,3,1
     132   00:D2B2  00 00 00 03 03 03 03 01 
     133   00:D2BA                      	db 3,7,11,3,3,3,2,2
     133   00:D2BA  03 07 0B 03 03 03 02 02 
     134   00:D2C2                      	db 0,0,0,192,192,192,192,128
     134   00:D2C2  00 00 00 C0 C0 C0 C0 80 
     135   00:D2CA                      	db 192,224,208,192,192,192,64,64
     135   00:D2CA  C0 E0 D0 C0 C0 C0 40 40 
     136   00:D2D2                      ;Definition sprite 21, name: Enemy-3-right-1
     137   00:D2D2                      	db 1,1,1,1,0,1,3,3
     137   00:D2D2  01 01 01 01 00 01 03 03 
     138   00:D2DA                      	db 7,7,7,7,7,6,1,2
     138   00:D2DA  07 07 07 07 07 06 01 02 
     139   00:D2E2                      	db 224,160,224,224,192,192,224,224
     139   00:D2E2  E0 A0 E0 E0 C0 C0 E0 E0 
     140   00:D2EA                      	db 240,224,224,224,224,160,160,64
     140   00:D2EA  F0 E0 E0 E0 E0 A0 A0 40 
     141   00:D2F2                      ;Definition sprite 22, name: Enemy-3-right-2
     142   00:D2F2                      	db 3,3,3,3,1,1,3,3
     142   00:D2F2  03 03 03 03 01 01 03 03 
     143   00:D2FA                      	db 7,6,7,7,7,6,0,1
     143   00:D2FA  07 06 07 07 07 06 00 01 
     144   00:D302                      	db 192,64,192,192,128,192,224,160
     144   00:D302  C0 40 C0 C0 80 C0 E0 A0 
     145   00:D30A                      	db 96,224,224,224,224,160,160,32
     145   00:D30A  60 E0 E0 E0 E0 A0 A0 20 
     146   00:D312                      ;Definition sprite 23, name: Enemy-3-left-1
     147   00:D312                      	db 7,5,7,7,3,3,7,7
     147   00:D312  07 05 07 07 03 03 07 07 
     148   00:D31A                      	db 15,7,7,7,7,5,5,2
     148   00:D31A  0F 07 07 07 07 05 05 02 
     149   00:D322                      	db 128,128,128,128,0,128,192,192
     149   00:D322  80 80 80 80 00 80 C0 C0 
     150   00:D32A                      	db 224,224,224,224,224,96,128,64
     150   00:D32A  E0 E0 E0 E0 E0 60 80 40 
     151   00:D332                      ;Definition sprite 24, name: Enemy-3-left-2
     152   00:D332                      	db 3,2,3,3,1,3,7,5
     152   00:D332  03 02 03 03 01 03 07 05 
     153   00:D33A                      	db 6,7,7,7,7,5,5,4
     153   00:D33A  06 07 07 07 07 05 05 04 
     154   00:D342                      	db 192,192,192,192,128,128,192,192
     154   00:D342  C0 C0 C0 C0 80 80 C0 C0 
     155   00:D34A                      	db 224,96,224,224,224,96,0,128
     155   00:D34A  E0 60 E0 E0 E0 60 00 80 
     156   00:D352                      ;Definition sprite 25, name: Enemy-3-up-1
     157   00:D352                      	db 3,3,3,3,1,9,5,3
     157   00:D352  03 03 03 03 01 09 05 03 
     158   00:D35A                      	db 3,7,15,15,15,8,2,2
     158   00:D35A  03 07 0F 0F 0F 08 02 02 
     159   00:D362                      	db 192,192,192,192,128,144,160,192
     159   00:D362  C0 C0 C0 C0 80 90 A0 C0 
     160   00:D36A                      	db 192,224,240,240,240,208,64,64
     160   00:D36A  C0 E0 F0 F0 F0 D0 40 40 
     161   00:D372                      ;Definition sprite 26, name: Enemy-3-up-2
     162   00:D372                      	db 3,3,3,3,1,1,1,7
     162   00:D372  03 03 03 03 01 01 01 07 
     163   00:D37A                      	db 11,23,15,13,13,9,2,4
     163   00:D37A  0B 17 0F 0D 0D 09 02 04 
     164   00:D382                      	db 192,192,192,192,128,128,128,224
     164   00:D382  C0 C0 C0 C0 80 80 80 E0 
     165   00:D38A                      	db 208,232,240,240,176,144,64,32
     165   00:D38A  D0 E8 F0 F0 B0 90 40 20 
     166   00:D392                      ;Definition sprite 27, name: object-1-money
     167   00:D392                      	db 0,0,3,7,12,29,60,127
     167   00:D392  00 00 03 07 0C 1D 3C 7F 
     168   00:D39A                      	db 124,47,23,24,31,11,12,7
     168   00:D39A  7C 2F 17 18 1F 0B 0C 07 
     169   00:D3A2                      	db 0,0,192,224,48,248,60,190
     169   00:D3A2  00 00 C0 E0 30 F8 3C BE 
     170   00:D3AA                      	db 62,244,236,24,248,232,16,240
     170   00:D3AA  3E F4 EC 18 F8 E8 10 F0 
     171   00:D3B2                      ;Definition sprite 28, name: object-2-money
     172   00:D3B2                      	db 0,0,3,7,12,29,60,127
     172   00:D3B2  00 00 03 07 0C 1D 3C 7F 
     173   00:D3BA                      	db 124,47,23,24,31,11,12,7
     173   00:D3BA  7C 2F 17 18 1F 0B 0C 07 
     174   00:D3C2                      	db 0,0,192,224,48,248,60,190
     174   00:D3C2  00 00 C0 E0 30 F8 3C BE 
     175   00:D3CA                      	db 62,244,236,24,248,232,16,240
     175   00:D3CA  3E F4 EC 18 F8 E8 10 F0 
     176   00:D3D2                      ;Definition sprite 29, name: object-3-money
     177   00:D3D2                      	db 0,0,3,7,12,29,60,127
     177   00:D3D2  00 00 03 07 0C 1D 3C 7F 
     178   00:D3DA                      	db 124,47,23,24,31,11,12,7
     178   00:D3DA  7C 2F 17 18 1F 0B 0C 07 
     179   00:D3E2                      	db 0,0,192,224,48,248,60,190
     179   00:D3E2  00 00 C0 E0 30 F8 3C BE 
     180   00:D3EA                      	db 62,244,236,24,248,232,16,240
     180   00:D3EA  3E F4 EC 18 F8 E8 10 F0 
     181   00:D3F2                      sprites_colors: 
     182   00:D3F2                      ;Data colors sprite 0, name: diban-rojo
     183   00:D3F2                      	db 8,8,8,8,8,8,8,8,8,8,8,8,8,8,8,8
     183   00:D3F2  08 08 08 08 08 08 08 08 08 08 08 08 08 08 08 08 
     184   00:D402                      ;Data colors sprite 1, name: diban-azul
     185   00:D402                      	db 4,4,4,4,4,4,4,4,4,4,4,4,4,4,4,4
     185   00:D402  04 04 04 04 04 04 04 04 04 04 04 04 04 04 04 04 
     186   00:D412                      ;Data colors sprite 2, name: fire
     187   00:D412                      	db 8,8,8,8,8,8,8,8,8,8,8,8,8,8,8,8
     187   00:D412  08 08 08 08 08 08 08 08 08 08 08 08 08 08 08 08 
     188   00:D422                      ;Data colors sprite 3, name: player-left-1
     189   00:D422                      	db 6,6,9,9,9,4,4,4,5,5,6,6,6,6,6,12
     189   00:D422  06 06 09 09 09 04 04 04 05 05 06 06 06 06 06 0C 
     190   00:D432                      ;Data colors sprite 4, name: player-left-2
     191   00:D432                      	db 6,6,9,9,9,4,4,4,5,5,6,6,6,6,6,12
     191   00:D432  06 06 09 09 09 04 04 04 05 05 06 06 06 06 06 0C 
     192   00:D442                      ;Data colors sprite 5, name: player-right-1
     193   00:D442                      	db 6,6,9,9,9,4,4,4,5,5,6,6,6,6,6,12
     193   00:D442  06 06 09 09 09 04 04 04 05 05 06 06 06 06 06 0C 
     194   00:D452                      ;Data colors sprite 6, name: player-right-2
     195   00:D452                      	db 6,6,9,9,9,4,4,4,5,5,6,6,6,6,6,12
     195   00:D452  06 06 09 09 09 04 04 04 05 05 06 06 06 06 06 0C 
     196   00:D462                      ;Data colors sprite 7, name: player-up-1
     197   00:D462                      	db 6,6,9,9,9,4,4,4,5,5,6,6,6,6,6,12
     197   00:D462  06 06 09 09 09 04 04 04 05 05 06 06 06 06 06 0C 
     198   00:D472                      ;Data colors sprite 8, name: player-up-2
     199   00:D472                      	db 6,6,9,9,9,4,4,4,5,5,6,6,6,6,6,12
     199   00:D472  06 06 09 09 09 04 04 04 05 05 06 06 06 06 06 0C 
     200   00:D482                      ;Data colors sprite 9, name: player-left-2
     201   00:D482                      	db 6,6,9,9,9,4,4,4,5,5,5,5,5,5,5,5
     201   00:D482  06 06 09 09 09 04 04 04 05 05 05 05 05 05 05 05 
     202   00:D492                      ;Data colors sprite 10, name: player-left-2
     203   00:D492                      	db 6,6,9,9,9,4,4,4,5,5,5,5,5,5,5,5
     203   00:D492  06 06 09 09 09 04 04 04 05 05 05 05 05 05 05 05 
     204   00:D4A2                      ;Data colors sprite 11, name: Enemy-right-1
     205   00:D4A2                      	db 6,6,6,12,12,12,12,12,12,12,12,13,13,6,6,6
     205   00:D4A2  06 06 06 0C 0C 0C 0C 0C 0C 0C 0C 0D 0D 06 06 06 
     206   00:D4B2                      ;Data colors sprite 12, name: Enemy-right-2
     207   00:D4B2                      	db 6,6,6,6,12,12,12,12,12,12,12,12,12,13,13,13
     207   00:D4B2  06 06 06 06 0C 0C 0C 0C 0C 0C 0C 0C 0C 0D 0D 0D 
     208   00:D4C2                      ;Data colors sprite 13, name: Enemy-left-1
     209   00:D4C2                      	db 6,6,6,12,12,12,12,12,12,12,12,13,13,6,6,6
     209   00:D4C2  06 06 06 0C 0C 0C 0C 0C 0C 0C 0C 0D 0D 06 06 06 
     210   00:D4D2                      ;Data colors sprite 14, name: Enemy-left-2
     211   00:D4D2                      	db 6,6,6,6,12,12,12,12,12,12,12,12,12,13,13,13
     211   00:D4D2  06 06 06 06 0C 0C 0C 0C 0C 0C 0C 0C 0C 0D 0D 0D 
     212   00:D4E2                      ;Data colors sprite 15, name: Enemy-2-right-1
     213   00:D4E2                      	db 0,6,6,9,9,9,4,4,4,4,4,4,4,4,14,14
     213   00:D4E2  00 06 06 09 09 09 04 04 04 04 04 04 04 04 0E 0E 
     214   00:D4F2                      ;Data colors sprite 16, name: Enemy-2-right-1
     215   00:D4F2                      	db 0,6,6,9,9,9,4,4,4,4,4,4,4,4,14,14
     215   00:D4F2  00 06 06 09 09 09 04 04 04 04 04 04 04 04 0E 0E 
     216   00:D502                      ;Data colors sprite 17, name: Enemy-2-right-1
     217   00:D502                      	db 0,6,6,9,9,9,4,4,4,4,4,4,4,4,14,14
     217   00:D502  00 06 06 09 09 09 04 04 04 04 04 04 04 04 0E 0E 
     218   00:D512                      ;Data colors sprite 18, name: Enemy-2-right-1
     219   00:D512                      	db 0,6,6,9,9,9,4,4,4,4,4,4,4,4,14,14
     219   00:D512  00 06 06 09 09 09 04 04 04 04 04 04 04 04 0E 0E 
     220   00:D522                      ;Data colors sprite 19, name: Enemy-2-up-1
     221   00:D522                      	db 0,0,6,6,9,9,4,4,4,4,4,4,4,4,14,14
     221   00:D522  00 00 06 06 09 09 04 04 04 04 04 04 04 04 0E 0E 
     222   00:D532                      ;Data colors sprite 20, name: Enemy-2-up-1
     223   00:D532                      	db 0,0,0,6,6,9,4,4,4,4,4,4,4,4,14,14
     223   00:D532  00 00 00 06 06 09 04 04 04 04 04 04 04 04 0E 0E 
     224   00:D542                      ;Data colors sprite 21, name: Enemy-3-right-1
     225   00:D542                      	db 9,9,9,9,6,8,8,8,8,8,8,8,8,8,14,14
     225   00:D542  09 09 09 09 06 08 08 08 08 08 08 08 08 08 0E 0E 
     226   00:D552                      ;Data colors sprite 22, name: Enemy-3-right-2
     227   00:D552                      	db 9,9,9,9,6,8,8,8,8,8,8,8,8,8,14,14
     227   00:D552  09 09 09 09 06 08 08 08 08 08 08 08 08 08 0E 0E 
     228   00:D562                      ;Data colors sprite 23, name: Enemy-3-left-1
     229   00:D562                      	db 9,9,9,9,6,8,8,8,8,8,8,8,8,8,14,14
     229   00:D562  09 09 09 09 06 08 08 08 08 08 08 08 08 08 0E 0E 
     230   00:D572                      ;Data colors sprite 24, name: Enemy-3-left-2
     231   00:D572                      	db 9,9,9,9,6,8,8,8,8,8,8,8,8,8,14,14
     231   00:D572  09 09 09 09 06 08 08 08 08 08 08 08 08 08 0E 0E 
     232   00:D582                      ;Data colors sprite 25, name: Enemy-3-up-1
     233   00:D582                      	db 9,9,9,9,6,8,8,8,8,8,8,8,8,8,14,14
     233   00:D582  09 09 09 09 06 08 08 08 08 08 08 08 08 08 0E 0E 
     234   00:D592                      ;Data colors sprite 26, name: Enemy-3-up-2
     235   00:D592                      	db 9,9,9,9,6,8,8,8,8,8,8,8,8,8,14,14
     235   00:D592  09 09 09 09 06 08 08 08 08 08 08 08 08 08 0E 0E 
     236   00:D5A2                      ;Data colors sprite 27, name: object-1-money
     237   00:D5A2                      	db 0,0,10,10,10,10,10,10,10,10,14,14,14,14,14,14
     237   00:D5A2  00 00 0A 0A 0A 0A 0A 0A 0A 0A 0E 0E 0E 0E 0E 0E 
     238   00:D5B2                      ;Data colors sprite 28, name: object-2-money
     239   00:D5B2                      	db 0,0,10,10,10,10,10,10,10,10,14,14,14,14,14,14
     239   00:D5B2  00 00 0A 0A 0A 0A 0A 0A 0A 0A 0E 0E 0E 0E 0E 0E 
     240   00:D5C2                      ;Data colors sprite 29, name: object-3-money
     241   00:D5C2                      	db 0,0,10,10,10,10,10,10,10,10,14,14,14,14,14,14
     241   00:D5C2  00 00 0A 0A 0A 0A 0A 0A 0A 0A 0E 0E 0E 0E 0E 0E 
     242   00:D5D2                      sprites_atributes: 
     243   00:D5D2                      ;Data atributes sprite (y,x,patron,color) 0, name: diban-rojo
     244   00:D5D2  00 00 00 20         	db 0,0,0, " "
     245   00:D5D6                      ;Data atributes sprite (y,x,patron,color) 1, name: diban-azul
     246   00:D5D6  00 21 04 20         	db 0,33,4, " "
     247   00:D5DA                      ;Data atributes sprite (y,x,patron,color) 2, name: fire
     248   00:D5DA  00 42 08 20         	db 0,66,8, " "
     249   00:D5DE                      ;Data atributes sprite (y,x,patron,color) 3, name: player-left-1
     250   00:D5DE  00 63 0C 20         	db 0,99,12, " "
     251   00:D5E2                      ;Data atributes sprite (y,x,patron,color) 4, name: player-left-2
     252   00:D5E2  00 84 10 20         	db 0,132,16, " "
     253   00:D5E6                      ;Data atributes sprite (y,x,patron,color) 5, name: player-right-1
     254   00:D5E6  00 A5 14 20         	db 0,165,20, " "
     255   00:D5EA                      ;Data atributes sprite (y,x,patron,color) 6, name: player-right-2
     256   00:D5EA  00 C6 18 20         	db 0,198,24, " "
     257   00:D5EE                      ;Data atributes sprite (y,x,patron,color) 7, name: player-up-1
     258   00:D5EE  00 E7 1C 20         	db 0,231,28, " "
     259   00:D5F2                      ;Data atributes sprite (y,x,patron,color) 8, name: player-up-2
     260   00:D5F2  21 00 20 20         	db 33,0,32, " "
     261   00:D5F6                      ;Data atributes sprite (y,x,patron,color) 9, name: player-left-2
     262   00:D5F6  21 21 24 20         	db 33,33,36, " "
     263   00:D5FA                      ;Data atributes sprite (y,x,patron,color) 10, name: player-left-2
     264   00:D5FA  21 42 28 20         	db 33,66,40, " "
     265   00:D5FE                      ;Data atributes sprite (y,x,patron,color) 11, name: Enemy-right-1
     266   00:D5FE  21 63 2C 20         	db 33,99,44, " "
     267   00:D602                      ;Data atributes sprite (y,x,patron,color) 12, name: Enemy-right-2
     268   00:D602  21 84 30 20         	db 33,132,48, " "
     269   00:D606                      ;Data atributes sprite (y,x,patron,color) 13, name: Enemy-left-1
     270   00:D606  21 A5 34 20         	db 33,165,52, " "
     271   00:D60A                      ;Data atributes sprite (y,x,patron,color) 14, name: Enemy-left-2
     272   00:D60A  21 C6 38 20         	db 33,198,56, " "
     273   00:D60E                      ;Data atributes sprite (y,x,patron,color) 15, name: Enemy-2-right-1
     274   00:D60E  21 E7 3C 20         	db 33,231,60, " "
     275   00:D612                      ;Data atributes sprite (y,x,patron,color) 16, name: Enemy-2-right-1
     276   00:D612  42 00 40 20         	db 66,0,64, " "
     277   00:D616                      ;Data atributes sprite (y,x,patron,color) 17, name: Enemy-2-right-1
     278   00:D616  42 21 44 20         	db 66,33,68, " "
     279   00:D61A                      ;Data atributes sprite (y,x,patron,color) 18, name: Enemy-2-right-1
     280   00:D61A  42 42 48 20         	db 66,66,72, " "
     281   00:D61E                      ;Data atributes sprite (y,x,patron,color) 19, name: Enemy-2-up-1
     282   00:D61E  42 63 4C 20         	db 66,99,76, " "
     283   00:D622                      ;Data atributes sprite (y,x,patron,color) 20, name: Enemy-2-up-1
     284   00:D622  42 84 50 20         	db 66,132,80, " "
     285   00:D626                      ;Data atributes sprite (y,x,patron,color) 21, name: Enemy-3-right-1
     286   00:D626  42 A5 54 20         	db 66,165,84, " "
     287   00:D62A                      ;Data atributes sprite (y,x,patron,color) 22, name: Enemy-3-right-2
     288   00:D62A  42 C6 58 20         	db 66,198,88, " "
     289   00:D62E                      ;Data atributes sprite (y,x,patron,color) 23, name: Enemy-3-left-1
     290   00:D62E  42 E7 5C 20         	db 66,231,92, " "
     291   00:D632                      ;Data atributes sprite (y,x,patron,color) 24, name: Enemy-3-left-2
     292   00:D632  63 00 60 20         	db 99,0,96, " "
     293   00:D636                      ;Data atributes sprite (y,x,patron,color) 25, name: Enemy-3-up-1
     294   00:D636  63 21 64 20         	db 99,33,100, " "
     295   00:D63A                      ;Data atributes sprite (y,x,patron,color) 26, name: Enemy-3-up-2
     296   00:D63A  63 42 68 20         	db 99,66,104, " "
     297   00:D63E                      ;Data atributes sprite (y,x,patron,color) 27, name: object-1-money
     298   00:D63E  63 63 6C 20         	db 99,99,108, " "
     299   00:D642                      ;Data atributes sprite (y,x,patron,color) 28, name: object-2-money
     300   00:D642  63 84 70 20         	db 99,132,112, " "
     301   00:D646                      ;Data atributes sprite (y,x,patron,color) 29, name: object-3-money
     302   00:D646  63 A5 74 20         	db 99,165,116, " "
     303   00:D64A                      FINAL: 

    LABELS
-------------------------------------------------
00:0000D000   INICIO
00:0000D030   INICIO.bucle
00:0000D032   sprites_definition
00:0000D3F2   sprites_colors
00:0000D5D2   sprites_atributes
00:0000D64A   FINAL


 Output: sprites.out
-------------------------------------------------

 Page: 00
  Org: 0000D000  Size: *  Used: 00000000

    No output

 Output: sprites.bin
-------------------------------------------------

 Page: 00
  Org: 0000D000  Size: *  Used: 00000651

   Address   Length Align   Label
   0000D000    1617         INICIO
